target datalayout = "e-m:e-p270:32:32-p271:32:32-p272:64:64-i64:64-i128:128-f80:128-n8:16:32:64-S128"
target triple = "x86_64-pc-linux-gnu"

%struct._GList = type { ptr, ptr, ptr }
%struct._extcap_info = type { ptr, ptr, ptr, ptr, ptr }
%struct._extcap_interface = type { ptr, ptr, ptr, ptr, ptr, i32 }

@_loaded_interfaces = internal global ptr null, align 8
@_tool_for_ifname = internal global ptr null, align 8
@.str.2 = private unnamed_addr constant [19 x i8] c"--extcap-interface\00", align 1
@.str.9 = private unnamed_addr constant [16 x i8] c"--extcap-config\00", align 1

; Function Attrs: null_pointer_is_valid sspstrong uwtable
define internal ptr @extcap_find_interface_for_ifname(ptr noundef %0) #0 {
  %2 = alloca ptr, align 8
  %3 = alloca ptr, align 8
  %4 = alloca ptr, align 8
  %5 = alloca i32, align 4
  %6 = alloca ptr, align 8
  %7 = alloca ptr, align 8
  %8 = alloca ptr, align 8
  %9 = alloca ptr, align 8
  store ptr %0, ptr %3, align 8
  call void @llvm.lifetime.start.p0(i64 8, ptr %4) #9
  store ptr null, ptr %4, align 8
  %10 = load ptr, ptr %3, align 8
  %11 = icmp ne ptr %10, null
  br i1 %11, label %12, label %18

12:                                               ; preds = %1
  %13 = load ptr, ptr @_tool_for_ifname, align 8
  %14 = icmp ne ptr %13, null
  br i1 %14, label %15, label %18

15:                                               ; preds = %12
  %16 = load ptr, ptr @_loaded_interfaces, align 8
  %17 = icmp ne ptr %16, null
  br i1 %17, label %20, label %18

18:                                               ; preds = %15, %12, %1
  %19 = load ptr, ptr %4, align 8
  store ptr %19, ptr %2, align 8
  store i32 1, ptr %5, align 4
  br label %83

20:                                               ; preds = %15
  call void @llvm.lifetime.start.p0(i64 8, ptr %6) #9
  %21 = load ptr, ptr @_tool_for_ifname, align 8
  %22 = load ptr, ptr %3, align 8
  %23 = call ptr @g_hash_table_lookup(ptr noundef %21, ptr noundef %22)
  store ptr %23, ptr %6, align 8
  %24 = load ptr, ptr %6, align 8
  %25 = icmp ne ptr %24, null
  br i1 %25, label %28, label %26

26:                                               ; preds = %20
  %27 = load ptr, ptr %4, align 8
  store ptr %27, ptr %2, align 8
  store i32 1, ptr %5, align 4
  br label %82

28:                                               ; preds = %20
  call void @llvm.lifetime.start.p0(i64 8, ptr %7) #9
  %29 = load ptr, ptr @_loaded_interfaces, align 8
  %30 = load ptr, ptr %6, align 8
  %31 = call ptr @g_hash_table_lookup(ptr noundef %29, ptr noundef %30)
  store ptr %31, ptr %7, align 8
  %32 = load ptr, ptr %7, align 8
  %33 = icmp ne ptr %32, null
  br i1 %33, label %36, label %34

34:                                               ; preds = %28
  %35 = load ptr, ptr %4, align 8
  store ptr %35, ptr %2, align 8
  store i32 1, ptr %5, align 4
  br label %81

36:                                               ; preds = %28
  call void @llvm.lifetime.start.p0(i64 8, ptr %8) #9
  %37 = load ptr, ptr %7, align 8
  %38 = getelementptr inbounds nuw %struct._extcap_info, ptr %37, i32 0, i32 4
  %39 = load ptr, ptr %38, align 8
  store ptr %39, ptr %8, align 8
  br label %40

40:                                               ; preds = %78, %36
  %41 = load ptr, ptr %8, align 8
  %42 = icmp ne ptr %41, null
  br i1 %42, label %43, label %52

43:                                               ; preds = %40
  %44 = load ptr, ptr %8, align 8
  %45 = getelementptr inbounds nuw %struct._GList, ptr %44, i32 0, i32 0
  %46 = load ptr, ptr %45, align 8
  %47 = icmp ne ptr %46, null
  br i1 %47, label %48, label %52

48:                                               ; preds = %43
  %49 = load ptr, ptr %4, align 8
  %50 = icmp ne ptr %49, null
  %51 = xor i1 %50, true
  br label %52

52:                                               ; preds = %48, %43, %40
  %53 = phi i1 [ false, %43 ], [ false, %40 ], [ %51, %48 ]
  br i1 %53, label %54, label %79

54:                                               ; preds = %52
  call void @llvm.lifetime.start.p0(i64 8, ptr %9) #9
  %55 = load ptr, ptr %8, align 8
  %56 = getelementptr inbounds nuw %struct._GList, ptr %55, i32 0, i32 0
  %57 = load ptr, ptr %56, align 8
  store ptr %57, ptr %9, align 8
  %58 = load ptr, ptr %9, align 8
  %59 = getelementptr inbounds nuw %struct._extcap_interface, ptr %58, i32 0, i32 0
  %60 = load ptr, ptr %59, align 8
  %61 = load ptr, ptr %3, align 8
  %62 = call i32 @g_strcmp0(ptr noundef %60, ptr noundef %61)
  %63 = icmp eq i32 %62, 0
  br i1 %63, label %64, label %66

64:                                               ; preds = %54
  %65 = load ptr, ptr %9, align 8
  store ptr %65, ptr %4, align 8
  store i32 3, ptr %5, align 4
  br label %76

66:                                               ; preds = %54
  %67 = load ptr, ptr %8, align 8
  %68 = icmp ne ptr %67, null
  br i1 %68, label %69, label %73

69:                                               ; preds = %66
  %70 = load ptr, ptr %8, align 8
  %71 = getelementptr inbounds nuw %struct._GList, ptr %70, i32 0, i32 1
  %72 = load ptr, ptr %71, align 8
  br label %74

73:                                               ; preds = %66
  br label %74

74:                                               ; preds = %73, %69
  %75 = phi ptr [ %72, %69 ], [ null, %73 ]
  store ptr %75, ptr %8, align 8
  store i32 0, ptr %5, align 4
  br label %76

76:                                               ; preds = %74, %64
  call void @llvm.lifetime.end.p0(i64 8, ptr %9) #9
  %77 = load i32, ptr %5, align 4
  switch i32 %77, label %85 [
    i32 0, label %78
    i32 3, label %79
  ]

78:                                               ; preds = %76
  br label %40, !llvm.loop !11

79:                                               ; preds = %76, %52
  %80 = load ptr, ptr %4, align 8
  store ptr %80, ptr %2, align 8
  store i32 1, ptr %5, align 4
  call void @llvm.lifetime.end.p0(i64 8, ptr %8) #9
  br label %81

81:                                               ; preds = %79, %34
  call void @llvm.lifetime.end.p0(i64 8, ptr %7) #9
  br label %82

82:                                               ; preds = %81, %26
  call void @llvm.lifetime.end.p0(i64 8, ptr %6) #9
  br label %83

83:                                               ; preds = %82, %18
  call void @llvm.lifetime.end.p0(i64 8, ptr %4) #9
  %84 = load ptr, ptr %2, align 8
  ret ptr %84

85:                                               ; preds = %76
  unreachable
}

; Function Attrs: null_pointer_is_valid sspstrong uwtable
define hidden ptr @extcap_get_if_configuration(ptr noundef %0) #0 {
  %2 = alloca ptr, align 8
  %3 = alloca ptr, align 8
  %4 = alloca ptr, align 8
  %5 = alloca ptr, align 8
  store ptr %0, ptr %2, align 8
  call void @llvm.lifetime.start.p0(i64 8, ptr %3) #9
  store ptr null, ptr %3, align 8
  call void @llvm.lifetime.start.p0(i64 8, ptr %4) #9
  store ptr null, ptr %4, align 8
  call void @extcap_ensure_all_interfaces_loaded()
  call void @llvm.lifetime.start.p0(i64 8, ptr %5) #9
  %6 = load ptr, ptr %2, align 8
  %7 = call ptr @extcap_find_interface_for_ifname(ptr noundef %6)
  store ptr %7, ptr %5, align 8
  %8 = load ptr, ptr %5, align 8
  %9 = icmp ne ptr %8, null
  br i1 %9, label %10, label %27

10:                                               ; preds = %1
  br label %11

11:                                               ; preds = %10
  br label %12

12:                                               ; preds = %11
  br label %13

13:                                               ; preds = %12
  %14 = load ptr, ptr %3, align 8
  %15 = call noalias ptr @g_strdup(ptr noundef @.str.9)
  %16 = call ptr @g_list_append(ptr noundef %14, ptr noundef %15)
  store ptr %16, ptr %3, align 8
  %17 = load ptr, ptr %3, align 8
  %18 = call noalias ptr @g_strdup(ptr noundef @.str.2)
  %19 = call ptr @g_list_append(ptr noundef %17, ptr noundef %18)
  store ptr %19, ptr %3, align 8
  %20 = load ptr, ptr %3, align 8
  %21 = load ptr, ptr %2, align 8
  %22 = call noalias ptr @g_strdup(ptr noundef %21)
  %23 = call ptr @g_list_append(ptr noundef %20, ptr noundef %22)
  store ptr %23, ptr %3, align 8
  %24 = load ptr, ptr %5, align 8
  %25 = load ptr, ptr %3, align 8
  call void @extcap_run_one(ptr noundef %24, ptr noundef %25, ptr noundef @cb_preference, ptr noundef %4, ptr noundef null)
  %26 = load ptr, ptr %3, align 8
  call void @g_list_free_full(ptr noundef %26, ptr noundef @g_free)
  br label %27

27:                                               ; preds = %13, %1
  %28 = load ptr, ptr %4, align 8
  call void @llvm.lifetime.end.p0(i64 8, ptr %5) #9
  call void @llvm.lifetime.end.p0(i64 8, ptr %4) #9
  call void @llvm.lifetime.end.p0(i64 8, ptr %3) #9
  ret ptr %28
}