; Function Attrs: null_pointer_is_valid sspstrong uwtable
define hidden ptr @extcap_get_if_configuration(ptr noundef %0) local_unnamed_addr #0 {
  %2 = alloca ptr, align 8
  call void @llvm.lifetime.start.p0(i64 8, ptr nonnull %2) #9
  store ptr null, ptr %2, align 8
  tail call fastcc void @extcap_ensure_all_interfaces_loaded()
  %3 = icmp ne ptr %0, null
  %4 = load ptr, ptr @_tool_for_ifname, align 8
  %5 = icmp ne ptr %4, null
  %or.cond.i = select i1 %3, i1 %5, i1 false
  %6 = load ptr, ptr @_loaded_interfaces, align 8
  %7 = icmp ne ptr %6, null
  %or.cond3.i = select i1 %or.cond.i, i1 %7, i1 false
  br i1 %or.cond3.i, label %8, label %extcap_find_interface_for_ifname.exit.thread

8:                                                ; preds = %1
  %9 = tail call ptr @g_hash_table_lookup(ptr noundef nonnull %4, ptr noundef nonnull %0)
  %.not.i = icmp eq ptr %9, null
  br i1 %.not.i, label %extcap_find_interface_for_ifname.exit.thread, label %10

10:                                               ; preds = %8
  %11 = load ptr, ptr @_loaded_interfaces, align 8
  %12 = tail call ptr @g_hash_table_lookup(ptr noundef %11, ptr noundef nonnull %9)
  %.not34.i = icmp eq ptr %12, null
  br i1 %.not34.i, label %extcap_find_interface_for_ifname.exit.thread, label %13

13:                                               ; preds = %10
  %14 = getelementptr inbounds nuw i8, ptr %12, i64 32
  %.02343.i = load ptr, ptr %14, align 8
  %.not3544.i = icmp eq ptr %.02343.i, null
  br i1 %.not3544.i, label %extcap_find_interface_for_ifname.exit.thread, label %.lr.ph.i

15:                                               ; preds = %18
  %16 = getelementptr inbounds nuw i8, ptr %.02345.i, i64 8
  %.023.i = load ptr, ptr %16, align 8
  %.not35.i = icmp eq ptr %.023.i, null
  br i1 %.not35.i, label %extcap_find_interface_for_ifname.exit.thread, label %.lr.ph.i

.lr.ph.i:                                         ; preds = %13, %15
  %.02345.i = phi ptr [ %.023.i, %15 ], [ %.02343.i, %13 ]
  %17 = load ptr, ptr %.02345.i, align 8
  %.not36.not.i = icmp eq ptr %17, null
  br i1 %.not36.not.i, label %extcap_find_interface_for_ifname.exit.thread, label %18

18:                                               ; preds = %.lr.ph.i
  %19 = load ptr, ptr %17, align 8
  %20 = tail call i32 @g_strcmp0(ptr noundef %19, ptr noundef nonnull %0)
  %21 = icmp eq i32 %20, 0
  br i1 %21, label %extcap_find_interface_for_ifname.exit, label %15

extcap_find_interface_for_ifname.exit:            ; preds = %18
  %22 = tail call noalias ptr @g_strdup(ptr noundef nonnull @.str.9)
  %23 = tail call ptr @g_list_append(ptr noundef null, ptr noundef %22)
  %24 = tail call noalias ptr @g_strdup(ptr noundef nonnull @.str.2)
  %25 = tail call ptr @g_list_append(ptr noundef %23, ptr noundef %24)
  %26 = tail call noalias ptr @g_strdup(ptr noundef nonnull %0)
  %27 = tail call ptr @g_list_append(ptr noundef %25, ptr noundef %26)
  call fastcc void @extcap_run_one(ptr noundef %17, ptr noundef %27, ptr noundef nonnull @cb_preference, ptr noundef nonnull %2, ptr noundef null)
  call void @g_list_free_full(ptr noundef %27, ptr noundef nonnull @g_free)
  %.pre = load ptr, ptr %2, align 8
  br label %extcap_find_interface_for_ifname.exit.thread

extcap_find_interface_for_ifname.exit.thread:     ; preds = %15, %.lr.ph.i, %13, %10, %8, %1, %extcap_find_interface_for_ifname.exit
  %28 = phi ptr [ null, %13 ], [ null, %10 ], [ null, %8 ], [ null, %1 ], [ %.pre, %extcap_find_interface_for_ifname.exit ], [ null, %.lr.ph.i ], [ null, %15 ]
  call void @llvm.lifetime.end.p0(i64 8, ptr nonnull %2) #9
  ret ptr %28
}